target datalayout = "e-m:e-p270:32:32-p271:32:32-p272:64:64-i64:64-i128:128-f80:128-n8:16:32:64-S128"
target triple = "x86_64-pc-linux-gnu"

%struct.AVCodecContext = type { ptr, i32, i32, ptr, i32, i32, ptr, ptr, ptr, i64, i32, i32, ptr, i32, %struct.AVRational, %struct.AVRational, %struct.AVRational, i32, i32, i32, i32, i32, %struct.AVRational, i32, i32, i32, i32, i32, i32, i32, i32, i32, i32, i32, ptr, ptr, i32, float, float, float, float, float, float, float, float, float, i32, i32, i32, i32, i32, i32, i32, i32, i32, i32, i32, i32, ptr, ptr, ptr, i32, i32, i32, i32, i32, i32, i32, i32, i32, i32, %struct.AVChannelLayout, i32, i32, i32, i32, i32, i32, i32, i32, ptr, i32, i32, i32, float, float, i32, i32, i32, i32, i32, ptr, i64, i64, float, float, i32, i32, ptr, ptr, i32, i32, i32, i32, i32, ptr, ptr, ptr, ptr, i32, i32, [8 x i64], i32, i32, i32, i32, i32, i32, i32, ptr, ptr, i32, i32, i32, i32, i32, i32, i32, i32, i32, i32, ptr, ptr, i32, i32, ptr, ptr, ptr, ptr, i32, i32, i64, i32, i32, i64, ptr, i64, ptr, i32, ptr, i32 }
%struct.AVRational = type { i32, i32 }
%struct.AVChannelLayout = type { i32, i32, %union.anon.0, ptr }
%union.anon.0 = type { i64 }
%struct.AGMContext = type { ptr, ptr, %struct.GetBitContext, %struct.GetByteContext, i32, i32, i32, i32, i32, [3 x i32], i32, i32, i32, i32, i32, ptr, i32, i32, ptr, i32, %struct.VLC, ptr, [64 x i32], [64 x i32], [64 x i8], [64 x i16], ptr, i32, ptr, i32, %struct.IDCTDSPContext, [8 x i8] }
%struct.GetBitContext = type { ptr, ptr, i32, i32, i32 }
%struct.GetByteContext = type { ptr, ptr, ptr }
%struct.VLC = type { i32, ptr, i32, i32 }
%struct.IDCTDSPContext = type { ptr, ptr, ptr, ptr, ptr, ptr, [64 x i8], i32, i32 }

@ff_zigzag_direct = external constant [64 x i8], align 16

; Function Attrs: cold nounwind optsize uwtable
define internal i32 @decode_init(ptr noundef %0) #0 {
  %2 = alloca i32, align 4
  %3 = alloca ptr, align 8
  %4 = alloca ptr, align 8
  %5 = alloca i32, align 4
  store ptr %0, ptr %3, align 8, !tbaa !4
  call void @llvm.lifetime.start.p0(i64 8, ptr %4) #10
  %6 = load ptr, ptr %3, align 8, !tbaa !4
  %7 = getelementptr inbounds nuw %struct.AVCodecContext, ptr %6, i32 0, i32 6
  %8 = load ptr, ptr %7, align 8, !tbaa !9
  store ptr %8, ptr %4, align 8, !tbaa !29
  %9 = load ptr, ptr %3, align 8, !tbaa !4
  %10 = getelementptr inbounds nuw %struct.AVCodecContext, ptr %9, i32 0, i32 5
  %11 = load i32, ptr %10, align 4, !tbaa !31
  %12 = icmp eq i32 %11, 877479745
  %13 = zext i1 %12 to i32
  %14 = load ptr, ptr %4, align 8, !tbaa !29
  %15 = getelementptr inbounds nuw %struct.AGMContext, ptr %14, i32 0, i32 12
  store i32 %13, ptr %15, align 16, !tbaa !32
  %16 = load ptr, ptr %4, align 8, !tbaa !29
  %17 = getelementptr inbounds nuw %struct.AGMContext, ptr %16, i32 0, i32 12
  %18 = load i32, ptr %17, align 16, !tbaa !32
  %19 = icmp ne i32 %18, 0
  %20 = select i1 %19, i32 3, i32 0
  %21 = load ptr, ptr %3, align 8, !tbaa !4
  %22 = getelementptr inbounds nuw %struct.AVCodecContext, ptr %21, i32 0, i32 23
  store i32 %20, ptr %22, align 8, !tbaa !41
  %23 = load ptr, ptr %3, align 8, !tbaa !4
  %24 = load ptr, ptr %4, align 8, !tbaa !29
  %25 = getelementptr inbounds nuw %struct.AGMContext, ptr %24, i32 0, i32 1
  store ptr %23, ptr %25, align 8, !tbaa !42
  %26 = load ptr, ptr %3, align 8, !tbaa !4
  %27 = getelementptr inbounds nuw %struct.AVCodecContext, ptr %26, i32 0, i32 5
  %28 = load i32, ptr %27, align 4, !tbaa !31
  %29 = icmp eq i32 %28, 860702529
  br i1 %29, label %35, label %30

30:                                               ; preds = %1
  %31 = load ptr, ptr %3, align 8, !tbaa !4
  %32 = getelementptr inbounds nuw %struct.AVCodecContext, ptr %31, i32 0, i32 5
  %33 = load i32, ptr %32, align 4, !tbaa !31
  %34 = icmp eq i32 %33, 927811393
  br label %35

35:                                               ; preds = %30, %1
  %36 = phi i1 [ true, %1 ], [ %34, %30 ]
  %37 = zext i1 %36 to i32
  %38 = load ptr, ptr %4, align 8, !tbaa !29
  %39 = getelementptr inbounds nuw %struct.AGMContext, ptr %38, i32 0, i32 10
  store i32 %37, ptr %39, align 8, !tbaa !43
  %40 = load ptr, ptr %3, align 8, !tbaa !4
  %41 = getelementptr inbounds nuw %struct.AVCodecContext, ptr %40, i32 0, i32 5
  %42 = load i32, ptr %41, align 4, !tbaa !31
  %43 = icmp ne i32 %42, 877479745
  br i1 %43, label %44, label %49

44:                                               ; preds = %35
  %45 = load ptr, ptr %3, align 8, !tbaa !4
  %46 = getelementptr inbounds nuw %struct.AVCodecContext, ptr %45, i32 0, i32 5
  %47 = load i32, ptr %46, align 4, !tbaa !31
  %48 = icmp ne i32 %47, 894256961
  br label %49

49:                                               ; preds = %44, %35
  %50 = phi i1 [ false, %35 ], [ %48, %44 ]
  %51 = zext i1 %50 to i32
  %52 = load ptr, ptr %4, align 8, !tbaa !29
  %53 = getelementptr inbounds nuw %struct.AGMContext, ptr %52, i32 0, i32 11
  store i32 %51, ptr %53, align 4, !tbaa !44
  %54 = load ptr, ptr %4, align 8, !tbaa !29
  %55 = getelementptr inbounds nuw %struct.AGMContext, ptr %54, i32 0, i32 12
  %56 = load i32, ptr %55, align 16, !tbaa !32
  %57 = icmp ne i32 %56, 0
  br i1 %57, label %77, label %58

58:                                               ; preds = %49
  %59 = load ptr, ptr %4, align 8, !tbaa !29
  %60 = getelementptr inbounds nuw %struct.AGMContext, ptr %59, i32 0, i32 11
  %61 = load i32, ptr %60, align 4, !tbaa !44
  %62 = icmp ne i32 %61, 0
  br i1 %62, label %77, label %63

63:                                               ; preds = %58
  %64 = load ptr, ptr %3, align 8, !tbaa !4
  %65 = getelementptr inbounds nuw %struct.AVCodecContext, ptr %64, i32 0, i32 18
  %66 = load i32, ptr %65, align 8, !tbaa !45
  %67 = and i32 %66, 1
  %68 = icmp ne i32 %67, 0
  br i1 %68, label %75, label %69

69:                                               ; preds = %63
  %70 = load ptr, ptr %3, align 8, !tbaa !4
  %71 = getelementptr inbounds nuw %struct.AVCodecContext, ptr %70, i32 0, i32 19
  %72 = load i32, ptr %71, align 4, !tbaa !46
  %73 = and i32 %72, 1
  %74 = icmp ne i32 %73, 0
  br i1 %74, label %75, label %76

75:                                               ; preds = %69, %63
  store i32 -1094995529, ptr %2, align 4
  store i32 1, ptr %5, align 4
  br label %99

76:                                               ; preds = %69
  br label %77

77:                                               ; preds = %76, %58, %49
  %78 = load ptr, ptr %3, align 8, !tbaa !4
  %79 = getelementptr inbounds nuw %struct.AVCodecContext, ptr %78, i32 0, i32 113
  store i32 2, ptr %79, align 4, !tbaa !47
  %80 = load ptr, ptr %4, align 8, !tbaa !29
  %81 = getelementptr inbounds nuw %struct.AGMContext, ptr %80, i32 0, i32 30
  %82 = load ptr, ptr %3, align 8, !tbaa !4
  call void @ff_idctdsp_init(ptr noundef %81, ptr noundef %82)
  %83 = load ptr, ptr %4, align 8, !tbaa !29
  %84 = getelementptr inbounds nuw %struct.AGMContext, ptr %83, i32 0, i32 24
  %85 = getelementptr inbounds [64 x i8], ptr %84, i64 0, i64 0
  %86 = load ptr, ptr %4, align 8, !tbaa !29
  %87 = getelementptr inbounds nuw %struct.AGMContext, ptr %86, i32 0, i32 30
  %88 = getelementptr inbounds nuw %struct.IDCTDSPContext, ptr %87, i32 0, i32 6
  %89 = getelementptr inbounds [64 x i8], ptr %88, i64 0, i64 0
  call void @ff_permute_scantable(ptr noundef %85, ptr noundef @ff_zigzag_direct, ptr noundef %89)
  %90 = call ptr @av_frame_alloc()
  %91 = load ptr, ptr %4, align 8, !tbaa !29
  %92 = getelementptr inbounds nuw %struct.AGMContext, ptr %91, i32 0, i32 21
  store ptr %90, ptr %92, align 8, !tbaa !48
  %93 = load ptr, ptr %4, align 8, !tbaa !29
  %94 = getelementptr inbounds nuw %struct.AGMContext, ptr %93, i32 0, i32 21
  %95 = load ptr, ptr %94, align 8, !tbaa !48
  %96 = icmp ne ptr %95, null
  br i1 %96, label %98, label %97

97:                                               ; preds = %77
  store i32 -12, ptr %2, align 4
  store i32 1, ptr %5, align 4
  br label %99

98:                                               ; preds = %77
  store i32 0, ptr %2, align 4
  store i32 1, ptr %5, align 4
  br label %99

99:                                               ; preds = %98, %97, %75
  call void @llvm.lifetime.end.p0(i64 8, ptr %4) #10
  %100 = load i32, ptr %2, align 4
  ret i32 %100
}