; Function Attrs: cold nounwind optsize uwtable
define internal range(i32 -1094995529, 1) i32 @decode_init(ptr noundef initializes((136, 140)) %0) #0 {
  %2 = getelementptr inbounds nuw i8, ptr %0, i64 32
  %3 = load ptr, ptr %2, align 8, !tbaa !4
  %4 = getelementptr inbounds nuw i8, ptr %0, i64 28
  %5 = load i32, ptr %4, align 4, !tbaa !27
  %6 = icmp eq i32 %5, 877479745
  %7 = zext i1 %6 to i32
  %8 = getelementptr inbounds nuw i8, ptr %3, i64 112
  store i32 %7, ptr %8, align 16, !tbaa !28
  %9 = select i1 %6, i32 3, i32 0
  %10 = getelementptr inbounds nuw i8, ptr %0, i64 136
  store i32 %9, ptr %10, align 8, !tbaa !38
  %11 = getelementptr inbounds nuw i8, ptr %3, i64 8
  store ptr %0, ptr %11, align 8, !tbaa !39
  %12 = and i32 %5, -67108865
  %narrow = icmp eq i32 %12, 860702529
  %13 = zext i1 %narrow to i32
  %14 = getelementptr inbounds nuw i8, ptr %3, i64 104
  store i32 %13, ptr %14, align 8, !tbaa !40
  %15 = icmp ne i32 %5, 894256961
  %16 = xor i1 %6, %15
  %17 = zext i1 %16 to i32
  %18 = getelementptr inbounds nuw i8, ptr %3, i64 108
  store i32 %17, ptr %18, align 4, !tbaa !41
  br i1 %15, label %27, label %19

19:                                               ; preds = %1
  %20 = getelementptr inbounds nuw i8, ptr %0, i64 112
  %21 = load i32, ptr %20, align 8, !tbaa !42
  %22 = and i32 %21, 1
  %.not27 = icmp eq i32 %22, 0
  br i1 %.not27, label %23, label %34

23:                                               ; preds = %19
  %24 = getelementptr inbounds nuw i8, ptr %0, i64 116
  %25 = load i32, ptr %24, align 4, !tbaa !43
  %26 = and i32 %25, 1
  %.not28 = icmp eq i32 %26, 0
  br i1 %.not28, label %27, label %34

27:                                               ; preds = %1, %23
  %28 = getelementptr inbounds nuw i8, ptr %0, i64 644
  store i32 2, ptr %28, align 4, !tbaa !44
  %29 = getelementptr inbounds nuw i8, ptr %3, i64 928
  tail call void @ff_idctdsp_init(ptr noundef nonnull %29, ptr noundef nonnull %0) #13
  %30 = getelementptr inbounds nuw i8, ptr %3, i64 704
  %31 = getelementptr inbounds nuw i8, ptr %3, i64 976
  tail call void @ff_permute_scantable(ptr noundef nonnull %30, ptr noundef nonnull @ff_zigzag_direct, ptr noundef nonnull %31) #13
  %32 = tail call ptr @av_frame_alloc() #13
  %33 = getelementptr inbounds nuw i8, ptr %3, i64 184
  store ptr %32, ptr %33, align 8, !tbaa !45
  %.not29 = icmp eq ptr %32, null
  %. = select i1 %.not29, i32 -12, i32 0
  br label %34

34:                                               ; preds = %27, %19, %23
  %.0 = phi i32 [ -1094995529, %23 ], [ -1094995529, %19 ], [ %., %27 ]
  ret i32 %.0
}